; Function Attrs: mustprogress uwtable
define dso_local noundef ptr @_Z16luaL_checkbufferP9lua_StateiPm(ptr noundef %0, i32 noundef %1, ptr noundef %2) local_unnamed_addr #2 {
  %4 = tail call noundef ptr @_Z12lua_tobufferP9lua_StateiPm(ptr noundef %0, i32 noundef %1, ptr noundef %2)
  %.not = icmp eq ptr %4, null
  br i1 %.not, label %5, label %6

5:                                                ; preds = %3
  tail call fastcc void @_ZL9tag_errorP9lua_Stateii(ptr noundef %0, i32 noundef %1, i32 noundef 10) #11
  unreachable

6:                                                ; preds = %3
  ret ptr %4
}